target datalayout = "e-m:e-p270:32:32-p271:32:32-p272:64:64-i64:64-i128:128-f80:128-n8:16:32:64-S128"
target triple = "x86_64-pc-linux-gnu"

%struct.ident_t = type { i32, i32, i32, i32, ptr }
%"class.ncnn::Mat" = type { ptr, ptr, i64, i32, ptr, i32, i32, i32, i32, i32, i64 }

@1 = private unnamed_addr constant %struct.ident_t { i32 0, i32 514, i32 0, i32 22, ptr @0 }, align 8

; Function Attrs: noinline noreturn nounwind uwtable
define linkonce_odr hidden void @__clang_call_terminate(ptr noundef %0) #9 comdat {
  %2 = call ptr @__cxa_begin_catch(ptr %0) #8
  call void @_ZSt9terminatev() #17
  unreachable
}

; Function Attrs: alwaysinline mustprogress nounwind uwtable
define linkonce_odr hidden noundef ptr @_ZN4ncnn3Mat3rowEi(ptr noundef nonnull align 8 dereferenceable(72) %0, i32 noundef %1) #5 comdat align 2 {
  %3 = alloca ptr, align 8
  %4 = alloca i32, align 4
  store ptr %0, ptr %3, align 8, !tbaa !9
  store i32 %1, ptr %4, align 4, !tbaa !13
  %5 = load ptr, ptr %3, align 8
  %6 = getelementptr inbounds nuw %"class.ncnn::Mat", ptr %5, i32 0, i32 0
  %7 = load ptr, ptr %6, align 8, !tbaa !54
  %8 = getelementptr inbounds nuw %"class.ncnn::Mat", ptr %5, i32 0, i32 6
  %9 = load i32, ptr %8, align 4, !tbaa !41
  %10 = sext i32 %9 to i64
  %11 = load i32, ptr %4, align 4, !tbaa !13
  %12 = sext i32 %11 to i64
  %13 = mul i64 %10, %12
  %14 = getelementptr inbounds nuw %"class.ncnn::Mat", ptr %5, i32 0, i32 2
  %15 = load i64, ptr %14, align 8, !tbaa !32
  %16 = mul i64 %13, %15
  %17 = getelementptr inbounds nuw i8, ptr %7, i64 %16
  ret ptr %17
}

; Function Attrs: alwaysinline mustprogress nounwind uwtable
define linkonce_odr hidden noundef ptr @_ZNK4ncnn3Mat3rowEi(ptr noundef nonnull align 8 dereferenceable(72) %0, i32 noundef %1) #5 comdat align 2 {
  %3 = alloca ptr, align 8
  %4 = alloca i32, align 4
  store ptr %0, ptr %3, align 8, !tbaa !9
  store i32 %1, ptr %4, align 4, !tbaa !13
  %5 = load ptr, ptr %3, align 8
  %6 = getelementptr inbounds nuw %"class.ncnn::Mat", ptr %5, i32 0, i32 0
  %7 = load ptr, ptr %6, align 8, !tbaa !54
  %8 = getelementptr inbounds nuw %"class.ncnn::Mat", ptr %5, i32 0, i32 6
  %9 = load i32, ptr %8, align 4, !tbaa !41
  %10 = sext i32 %9 to i64
  %11 = load i32, ptr %4, align 4, !tbaa !13
  %12 = sext i32 %11 to i64
  %13 = mul i64 %10, %12
  %14 = getelementptr inbounds nuw %"class.ncnn::Mat", ptr %5, i32 0, i32 2
  %15 = load i64, ptr %14, align 8, !tbaa !32
  %16 = mul i64 %13, %15
  %17 = getelementptr inbounds nuw i8, ptr %7, i64 %16
  ret ptr %17
}

; Function Attrs: alwaysinline norecurse nounwind uwtable
define internal void @_ZNK4ncnn15Packing_x86_fma7forwardERKNS_3MatERS1_RKNS_6OptionE.omp_outlined.5(ptr noalias noundef %0, ptr noalias noundef %1, ptr noundef nonnull align 4 dereferenceable(4) %2, ptr noundef nonnull align 8 dereferenceable(72) %3, ptr noundef nonnull align 8 dereferenceable(72) %4, ptr noundef nonnull align 4 dereferenceable(4) %5) #14 personality ptr @__gxx_personality_v0 {
  %7 = alloca ptr, align 8
  %8 = alloca ptr, align 8
  %9 = alloca ptr, align 8
  %10 = alloca ptr, align 8
  %11 = alloca ptr, align 8
  %12 = alloca ptr, align 8
  %13 = alloca ptr, align 8
  %14 = alloca ptr, align 8
  %15 = alloca i32, align 4
  %16 = alloca i32, align 4
  %17 = alloca i32, align 4
  %18 = alloca i32, align 4
  %19 = alloca i32, align 4
  %20 = alloca i32, align 4
  %21 = alloca i32, align 4
  %22 = alloca i32, align 4
  %23 = alloca i32, align 4
  %24 = alloca ptr, align 8
  %25 = alloca ptr, align 8
  %26 = alloca ptr, align 8
  %27 = alloca i32, align 4
  store ptr %0, ptr %7, align 8, !tbaa !56
  store ptr %1, ptr %8, align 8, !tbaa !56
  store ptr %2, ptr %9, align 8, !tbaa !56
  store ptr %3, ptr %10, align 8, !tbaa !9
  store ptr %4, ptr %11, align 8, !tbaa !9
  store ptr %5, ptr %12, align 8, !tbaa !56
  %28 = load ptr, ptr %9, align 8, !tbaa !56
  %29 = load ptr, ptr %10, align 8, !tbaa !9
  %30 = load ptr, ptr %11, align 8, !tbaa !9
  %31 = load ptr, ptr %12, align 8, !tbaa !56
  store ptr %29, ptr %13, align 8
  store ptr %30, ptr %14, align 8
  call void @llvm.lifetime.start.p0(i64 4, ptr %15) #8
  call void @llvm.lifetime.start.p0(i64 4, ptr %16) #8
  %32 = load i32, ptr %28, align 4, !tbaa !13
  store i32 %32, ptr %16, align 4, !tbaa !13
  call void @llvm.lifetime.start.p0(i64 4, ptr %17) #8
  %33 = load i32, ptr %16, align 4, !tbaa !13
  %34 = sub nsw i32 %33, 0
  %35 = sdiv i32 %34, 1
  %36 = sub nsw i32 %35, 1
  store i32 %36, ptr %17, align 4, !tbaa !13
  call void @llvm.lifetime.start.p0(i64 4, ptr %18) #8
  store i32 0, ptr %18, align 4, !tbaa !13
  call void @llvm.lifetime.end.p0(i64 4, ptr %18) #8
  %37 = load i32, ptr %16, align 4, !tbaa !13
  %38 = icmp slt i32 0, %37
  br i1 %38, label %39, label %141

39:                                               ; preds = %6
  call void @llvm.lifetime.start.p0(i64 4, ptr %19) #8
  store i32 0, ptr %19, align 4, !tbaa !13
  call void @llvm.lifetime.start.p0(i64 4, ptr %20) #8
  %40 = load i32, ptr %17, align 4, !tbaa !13
  store i32 %40, ptr %20, align 4, !tbaa !13
  call void @llvm.lifetime.start.p0(i64 4, ptr %21) #8
  store i32 1, ptr %21, align 4, !tbaa !13
  call void @llvm.lifetime.start.p0(i64 4, ptr %22) #8
  store i32 0, ptr %22, align 4, !tbaa !13
  call void @llvm.lifetime.start.p0(i64 4, ptr %23) #8
  %41 = load ptr, ptr %7, align 8
  %42 = load i32, ptr %41, align 4, !tbaa !13
  call void @__kmpc_for_static_init_4(ptr @1, i32 %42, i32 34, ptr %22, ptr %19, ptr %20, ptr %21, i32 1, i32 1)
  %43 = load i32, ptr %20, align 4, !tbaa !13
  %44 = load i32, ptr %17, align 4, !tbaa !13
  %45 = icmp sgt i32 %43, %44
  br i1 %45, label %46, label %48

46:                                               ; preds = %39
  %47 = load i32, ptr %17, align 4, !tbaa !13
  br label %50

48:                                               ; preds = %39
  %49 = load i32, ptr %20, align 4, !tbaa !13
  br label %50

50:                                               ; preds = %48, %46
  %51 = phi i32 [ %47, %46 ], [ %49, %48 ]
  store i32 %51, ptr %20, align 4, !tbaa !13
  %52 = load i32, ptr %19, align 4, !tbaa !13
  store i32 %52, ptr %15, align 4, !tbaa !13
  br label %53

53:                                               ; preds = %134, %50
  %54 = load i32, ptr %15, align 4, !tbaa !13
  %55 = load i32, ptr %20, align 4, !tbaa !13
  %56 = icmp sle i32 %54, %55
  br i1 %56, label %58, label %57

57:                                               ; preds = %53
  br label %137

58:                                               ; preds = %53
  %59 = load i32, ptr %15, align 4, !tbaa !13
  %60 = mul nsw i32 %59, 1
  %61 = add nsw i32 0, %60
  store i32 %61, ptr %23, align 4, !tbaa !13
  call void @llvm.lifetime.start.p0(i64 8, ptr %24) #8
  %62 = load ptr, ptr %13, align 8, !tbaa !9
  %63 = load i32, ptr %23, align 4, !tbaa !13
  %64 = invoke noundef ptr @_ZNK4ncnn3Mat3rowEi(ptr noundef nonnull align 8 dereferenceable(72) %62, i32 noundef %63)
          to label %65 unwind label %142

65:                                               ; preds = %58
  store ptr %64, ptr %24, align 8, !tbaa !57
  call void @llvm.lifetime.start.p0(i64 8, ptr %25) #8
  %66 = load ptr, ptr %14, align 8, !tbaa !9
  %67 = load i32, ptr %23, align 4, !tbaa !13
  %68 = mul nsw i32 %67, 2
  %69 = invoke noundef ptr @_ZN4ncnn3Mat3rowEi(ptr noundef nonnull align 8 dereferenceable(72) %66, i32 noundef %68)
          to label %70 unwind label %142

70:                                               ; preds = %65
  store ptr %69, ptr %25, align 8, !tbaa !57
  call void @llvm.lifetime.start.p0(i64 8, ptr %26) #8
  %71 = load ptr, ptr %14, align 8, !tbaa !9
  %72 = load i32, ptr %23, align 4, !tbaa !13
  %73 = mul nsw i32 %72, 2
  %74 = add nsw i32 %73, 1
  %75 = invoke noundef ptr @_ZN4ncnn3Mat3rowEi(ptr noundef nonnull align 8 dereferenceable(72) %71, i32 noundef %74)
          to label %76 unwind label %142

76:                                               ; preds = %70
  store ptr %75, ptr %26, align 8, !tbaa !57
  call void @llvm.lifetime.start.p0(i64 4, ptr %27) #8
  store i32 0, ptr %27, align 4, !tbaa !13
  br label %77

77:                                               ; preds = %129, %76
  %78 = load i32, ptr %27, align 4, !tbaa !13
  %79 = load i32, ptr %31, align 4, !tbaa !13
  %80 = icmp slt i32 %78, %79
  br i1 %80, label %82, label %81

81:                                               ; preds = %77
  call void @llvm.lifetime.end.p0(i64 4, ptr %27) #8
  br label %132

82:                                               ; preds = %77
  %83 = load ptr, ptr %24, align 8, !tbaa !57
  %84 = getelementptr inbounds float, ptr %83, i64 0
  %85 = load float, ptr %84, align 4, !tbaa !62
  %86 = load ptr, ptr %25, align 8, !tbaa !57
  %87 = getelementptr inbounds float, ptr %86, i64 0
  store float %85, ptr %87, align 4, !tbaa !62
  %88 = load ptr, ptr %24, align 8, !tbaa !57
  %89 = getelementptr inbounds float, ptr %88, i64 1
  %90 = load float, ptr %89, align 4, !tbaa !62
  %91 = load ptr, ptr %25, align 8, !tbaa !57
  %92 = getelementptr inbounds float, ptr %91, i64 1
  store float %90, ptr %92, align 4, !tbaa !62
  %93 = load ptr, ptr %24, align 8, !tbaa !57
  %94 = getelementptr inbounds float, ptr %93, i64 2
  %95 = load float, ptr %94, align 4, !tbaa !62
  %96 = load ptr, ptr %25, align 8, !tbaa !57
  %97 = getelementptr inbounds float, ptr %96, i64 2
  store float %95, ptr %97, align 4, !tbaa !62
  %98 = load ptr, ptr %24, align 8, !tbaa !57
  %99 = getelementptr inbounds float, ptr %98, i64 3
  %100 = load float, ptr %99, align 4, !tbaa !62
  %101 = load ptr, ptr %25, align 8, !tbaa !57
  %102 = getelementptr inbounds float, ptr %101, i64 3
  store float %100, ptr %102, align 4, !tbaa !62
  %103 = load ptr, ptr %24, align 8, !tbaa !57
  %104 = getelementptr inbounds float, ptr %103, i64 4
  %105 = load float, ptr %104, align 4, !tbaa !62
  %106 = load ptr, ptr %26, align 8, !tbaa !57
  %107 = getelementptr inbounds float, ptr %106, i64 0
  store float %105, ptr %107, align 4, !tbaa !62
  %108 = load ptr, ptr %24, align 8, !tbaa !57
  %109 = getelementptr inbounds float, ptr %108, i64 5
  %110 = load float, ptr %109, align 4, !tbaa !62
  %111 = load ptr, ptr %26, align 8, !tbaa !57
  %112 = getelementptr inbounds float, ptr %111, i64 1
  store float %110, ptr %112, align 4, !tbaa !62
  %113 = load ptr, ptr %24, align 8, !tbaa !57
  %114 = getelementptr inbounds float, ptr %113, i64 6
  %115 = load float, ptr %114, align 4, !tbaa !62
  %116 = load ptr, ptr %26, align 8, !tbaa !57
  %117 = getelementptr inbounds float, ptr %116, i64 2
  store float %115, ptr %117, align 4, !tbaa !62
  %118 = load ptr, ptr %24, align 8, !tbaa !57
  %119 = getelementptr inbounds float, ptr %118, i64 7
  %120 = load float, ptr %119, align 4, !tbaa !62
  %121 = load ptr, ptr %26, align 8, !tbaa !57
  %122 = getelementptr inbounds float, ptr %121, i64 3
  store float %120, ptr %122, align 4, !tbaa !62
  %123 = load ptr, ptr %24, align 8, !tbaa !57
  %124 = getelementptr inbounds float, ptr %123, i64 8
  store ptr %124, ptr %24, align 8, !tbaa !57
  %125 = load ptr, ptr %25, align 8, !tbaa !57
  %126 = getelementptr inbounds float, ptr %125, i64 4
  store ptr %126, ptr %25, align 8, !tbaa !57
  %127 = load ptr, ptr %26, align 8, !tbaa !57
  %128 = getelementptr inbounds float, ptr %127, i64 4
  store ptr %128, ptr %26, align 8, !tbaa !57
  br label %129

129:                                              ; preds = %82
  %130 = load i32, ptr %27, align 4, !tbaa !13
  %131 = add nsw i32 %130, 1
  store i32 %131, ptr %27, align 4, !tbaa !13
  br label %77, !llvm.loop !75

132:                                              ; preds = %81
  call void @llvm.lifetime.end.p0(i64 8, ptr %26) #8
  call void @llvm.lifetime.end.p0(i64 8, ptr %25) #8
  call void @llvm.lifetime.end.p0(i64 8, ptr %24) #8
  br label %133

133:                                              ; preds = %132
  br label %134

134:                                              ; preds = %133
  %135 = load i32, ptr %15, align 4, !tbaa !13
  %136 = add nsw i32 %135, 1
  store i32 %136, ptr %15, align 4, !tbaa !13
  br label %53

137:                                              ; preds = %57
  br label %138

138:                                              ; preds = %137
  %139 = load ptr, ptr %7, align 8
  %140 = load i32, ptr %139, align 4, !tbaa !13
  call void @__kmpc_for_static_fini(ptr @1, i32 %140)
  call void @llvm.lifetime.end.p0(i64 4, ptr %23) #8
  call void @llvm.lifetime.end.p0(i64 4, ptr %22) #8
  call void @llvm.lifetime.end.p0(i64 4, ptr %21) #8
  call void @llvm.lifetime.end.p0(i64 4, ptr %20) #8
  call void @llvm.lifetime.end.p0(i64 4, ptr %19) #8
  br label %141

141:                                              ; preds = %138, %6
  call void @llvm.lifetime.end.p0(i64 4, ptr %17) #8
  call void @llvm.lifetime.end.p0(i64 4, ptr %16) #8
  call void @llvm.lifetime.end.p0(i64 4, ptr %15) #8
  ret void

142:                                              ; preds = %70, %65, %58
  %143 = landingpad { ptr, i32 }
          catch ptr null
  %144 = extractvalue { ptr, i32 } %143, 0
  call void @__clang_call_terminate(ptr %144) #17
  unreachable
}