; Function Attrs: alwaysinline norecurse nounwind uwtable
define internal void @_ZNK4ncnn15Packing_x86_fma7forwardERKNS_3MatERS1_RKNS_6OptionE.omp_outlined.5(ptr noalias noundef readonly captures(none) %0, ptr noalias readnone captures(none) %1, ptr noundef nonnull readonly align 4 captures(none) dereferenceable(4) %2, ptr noundef nonnull readonly align 8 captures(none) dereferenceable(72) %3, ptr noundef nonnull readonly align 8 captures(none) dereferenceable(72) %4, ptr noundef nonnull readonly align 4 captures(none) dereferenceable(4) %5) #8 personality ptr @__gxx_personality_v0 {
  %7 = alloca i32, align 4
  %8 = alloca i32, align 4
  %9 = alloca i32, align 4
  %10 = alloca i32, align 4
  %11 = load i32, ptr %2, align 4, !tbaa !42
  %12 = icmp sgt i32 %11, 0
  br i1 %12, label %13, label %69

13:                                               ; preds = %6
  %14 = add nsw i32 %11, -1
  call void @llvm.lifetime.start.p0(i64 4, ptr nonnull %7) #6
  store i32 0, ptr %7, align 4, !tbaa !42
  call void @llvm.lifetime.start.p0(i64 4, ptr nonnull %8) #6
  store i32 %14, ptr %8, align 4, !tbaa !42
  call void @llvm.lifetime.start.p0(i64 4, ptr nonnull %9) #6
  store i32 1, ptr %9, align 4, !tbaa !42
  call void @llvm.lifetime.start.p0(i64 4, ptr nonnull %10) #6
  store i32 0, ptr %10, align 4, !tbaa !42
  %15 = load i32, ptr %0, align 4, !tbaa !42
  call void @__kmpc_for_static_init_4(ptr nonnull @1, i32 %15, i32 34, ptr nonnull %10, ptr nonnull %7, ptr nonnull %8, ptr nonnull %9, i32 1, i32 1)
  %16 = load i32, ptr %8, align 4, !tbaa !42
  %17 = call i32 @llvm.smin.i32(i32 %16, i32 %14)
  store i32 %17, ptr %8, align 4, !tbaa !42
  %18 = load i32, ptr %7, align 4, !tbaa !42
  %.not48 = icmp sgt i32 %18, %17
  br i1 %.not48, label %._crit_edge52, label %.lr.ph51

.lr.ph51:                                         ; preds = %13
  %19 = load ptr, ptr %3, align 8, !tbaa !33
  %20 = getelementptr inbounds nuw i8, ptr %3, i64 44
  %21 = load i32, ptr %20, align 4, !tbaa !38
  %22 = sext i32 %21 to i64
  %23 = getelementptr inbounds nuw i8, ptr %3, i64 16
  %24 = load i64, ptr %23, align 8, !tbaa !13
  %factor.op.mul = mul i64 %24, %22
  %25 = load ptr, ptr %4, align 8, !tbaa !33
  %26 = getelementptr inbounds nuw i8, ptr %4, i64 44
  %27 = load i32, ptr %26, align 4, !tbaa !38
  %28 = sext i32 %27 to i64
  %29 = getelementptr inbounds nuw i8, ptr %4, i64 16
  %30 = load i64, ptr %29, align 8, !tbaa !13
  %31 = mul i64 %30, %28
  %32 = load i32, ptr %5, align 4, !tbaa !42
  %33 = icmp sgt i32 %32, 0
  br i1 %33, label %.lr.ph.us.preheader, label %._crit_edge52

.lr.ph.us.preheader:                              ; preds = %.lr.ph51
  %34 = sext i32 %18 to i64
  %35 = add nsw i32 %17, 1
  br label %.lr.ph.us

.lr.ph.us:                                        ; preds = %.lr.ph.us.preheader, %._crit_edge.us
  %indvars.iv = phi i64 [ %34, %.lr.ph.us.preheader ], [ %indvars.iv.next, %._crit_edge.us ]
  %.reass.us = mul i64 %factor.op.mul, %indvars.iv
  %36 = getelementptr inbounds nuw i8, ptr %19, i64 %.reass.us
  %37 = shl nsw i64 %indvars.iv, 1
  %38 = mul i64 %31, %37
  %39 = getelementptr inbounds nuw i8, ptr %25, i64 %38
  %40 = or disjoint i64 %37, 1
  %41 = mul i64 %31, %40
  %42 = getelementptr inbounds nuw i8, ptr %25, i64 %41
  br label %43

43:                                               ; preds = %.lr.ph.us, %43
  %.047.us = phi i32 [ 0, %.lr.ph.us ], [ %68, %43 ]
  %.04046.us = phi ptr [ %42, %.lr.ph.us ], [ %67, %43 ]
  %.04145.us = phi ptr [ %39, %.lr.ph.us ], [ %66, %43 ]
  %.04244.us = phi ptr [ %36, %.lr.ph.us ], [ %65, %43 ]
  %44 = load float, ptr %.04244.us, align 4, !tbaa !50
  store float %44, ptr %.04145.us, align 4, !tbaa !50
  %45 = getelementptr inbounds nuw i8, ptr %.04244.us, i64 4
  %46 = load float, ptr %45, align 4, !tbaa !50
  %47 = getelementptr inbounds nuw i8, ptr %.04145.us, i64 4
  store float %46, ptr %47, align 4, !tbaa !50
  %48 = getelementptr inbounds nuw i8, ptr %.04244.us, i64 8
  %49 = load float, ptr %48, align 4, !tbaa !50
  %50 = getelementptr inbounds nuw i8, ptr %.04145.us, i64 8
  store float %49, ptr %50, align 4, !tbaa !50
  %51 = getelementptr inbounds nuw i8, ptr %.04244.us, i64 12
  %52 = load float, ptr %51, align 4, !tbaa !50
  %53 = getelementptr inbounds nuw i8, ptr %.04145.us, i64 12
  store float %52, ptr %53, align 4, !tbaa !50
  %54 = getelementptr inbounds nuw i8, ptr %.04244.us, i64 16
  %55 = load float, ptr %54, align 4, !tbaa !50
  store float %55, ptr %.04046.us, align 4, !tbaa !50
  %56 = getelementptr inbounds nuw i8, ptr %.04244.us, i64 20
  %57 = load float, ptr %56, align 4, !tbaa !50
  %58 = getelementptr inbounds nuw i8, ptr %.04046.us, i64 4
  store float %57, ptr %58, align 4, !tbaa !50
  %59 = getelementptr inbounds nuw i8, ptr %.04244.us, i64 24
  %60 = load float, ptr %59, align 4, !tbaa !50
  %61 = getelementptr inbounds nuw i8, ptr %.04046.us, i64 8
  store float %60, ptr %61, align 4, !tbaa !50
  %62 = getelementptr inbounds nuw i8, ptr %.04244.us, i64 28
  %63 = load float, ptr %62, align 4, !tbaa !50
  %64 = getelementptr inbounds nuw i8, ptr %.04046.us, i64 12
  store float %63, ptr %64, align 4, !tbaa !50
  %65 = getelementptr inbounds nuw i8, ptr %.04244.us, i64 32
  %66 = getelementptr inbounds nuw i8, ptr %.04145.us, i64 16
  %67 = getelementptr inbounds nuw i8, ptr %.04046.us, i64 16
  %68 = add nuw nsw i32 %.047.us, 1
  %exitcond.not = icmp eq i32 %68, %32
  br i1 %exitcond.not, label %._crit_edge.us, label %43, !llvm.loop !62

._crit_edge.us:                                   ; preds = %43
  %indvars.iv.next = add nsw i64 %indvars.iv, 1
  %lftr.wideiv = trunc i64 %indvars.iv.next to i32
  %exitcond55.not = icmp eq i32 %35, %lftr.wideiv
  br i1 %exitcond55.not, label %._crit_edge52, label %.lr.ph.us

._crit_edge52:                                    ; preds = %._crit_edge.us, %.lr.ph51, %13
  call void @__kmpc_for_static_fini(ptr nonnull @1, i32 %15)
  call void @llvm.lifetime.end.p0(i64 4, ptr nonnull %10) #6
  call void @llvm.lifetime.end.p0(i64 4, ptr nonnull %9) #6
  call void @llvm.lifetime.end.p0(i64 4, ptr nonnull %8) #6
  call void @llvm.lifetime.end.p0(i64 4, ptr nonnull %7) #6
  br label %69

69:                                               ; preds = %._crit_edge52, %6
  ret void
}